target datalayout = "e-m:e-p270:32:32-p271:32:32-p272:64:64-i64:64-i128:128-f80:128-n8:16:32:64-S128"
target triple = "x86_64-pc-linux-gnu"

%struct.b2Vec2 = type { float, float }
%struct.b2Polygon = type { [8 x %struct.b2Vec2], [8 x %struct.b2Vec2], %struct.b2Vec2, float, i32 }

@b2Vec2_zero = internal constant %struct.b2Vec2 zeroinitializer, align 4

; Function Attrs: nounwind uwtable
define void @b2MakeBox(ptr dead_on_unwind noalias writable sret(%struct.b2Polygon) align 4 %0, float noundef %1, float noundef %2) #3 {
  %4 = alloca float, align 4
  %5 = alloca float, align 4
  %6 = alloca %struct.b2Vec2, align 4
  %7 = alloca %struct.b2Vec2, align 4
  %8 = alloca %struct.b2Vec2, align 4
  %9 = alloca %struct.b2Vec2, align 4
  %10 = alloca %struct.b2Vec2, align 4
  %11 = alloca %struct.b2Vec2, align 4
  %12 = alloca %struct.b2Vec2, align 4
  %13 = alloca %struct.b2Vec2, align 4
  store float %1, ptr %4, align 4, !tbaa !12
  store float %2, ptr %5, align 4, !tbaa !12
  call void @llvm.memset.p0.i64(ptr align 4 %0, i8 0, i64 144, i1 false)
  %14 = getelementptr inbounds nuw %struct.b2Polygon, ptr %0, i32 0, i32 4
  store i32 4, ptr %14, align 4, !tbaa !22
  %15 = getelementptr inbounds nuw %struct.b2Polygon, ptr %0, i32 0, i32 0
  %16 = getelementptr inbounds [8 x %struct.b2Vec2], ptr %15, i64 0, i64 0
  %17 = getelementptr inbounds nuw %struct.b2Vec2, ptr %6, i32 0, i32 0
  %18 = load float, ptr %4, align 4, !tbaa !12
  %19 = fneg float %18
  store float %19, ptr %17, align 4, !tbaa !30
  %20 = getelementptr inbounds nuw %struct.b2Vec2, ptr %6, i32 0, i32 1
  %21 = load float, ptr %5, align 4, !tbaa !12
  %22 = fneg float %21
  store float %22, ptr %20, align 4, !tbaa !31
  call void @llvm.memcpy.p0.p0.i64(ptr align 4 %16, ptr align 4 %6, i64 8, i1 false), !tbaa.struct !26
  %23 = getelementptr inbounds nuw %struct.b2Polygon, ptr %0, i32 0, i32 0
  %24 = getelementptr inbounds [8 x %struct.b2Vec2], ptr %23, i64 0, i64 1
  %25 = getelementptr inbounds nuw %struct.b2Vec2, ptr %7, i32 0, i32 0
  %26 = load float, ptr %4, align 4, !tbaa !12
  store float %26, ptr %25, align 4, !tbaa !30
  %27 = getelementptr inbounds nuw %struct.b2Vec2, ptr %7, i32 0, i32 1
  %28 = load float, ptr %5, align 4, !tbaa !12
  %29 = fneg float %28
  store float %29, ptr %27, align 4, !tbaa !31
  call void @llvm.memcpy.p0.p0.i64(ptr align 4 %24, ptr align 4 %7, i64 8, i1 false), !tbaa.struct !26
  %30 = getelementptr inbounds nuw %struct.b2Polygon, ptr %0, i32 0, i32 0
  %31 = getelementptr inbounds [8 x %struct.b2Vec2], ptr %30, i64 0, i64 2
  %32 = getelementptr inbounds nuw %struct.b2Vec2, ptr %8, i32 0, i32 0
  %33 = load float, ptr %4, align 4, !tbaa !12
  store float %33, ptr %32, align 4, !tbaa !30
  %34 = getelementptr inbounds nuw %struct.b2Vec2, ptr %8, i32 0, i32 1
  %35 = load float, ptr %5, align 4, !tbaa !12
  store float %35, ptr %34, align 4, !tbaa !31
  call void @llvm.memcpy.p0.p0.i64(ptr align 4 %31, ptr align 4 %8, i64 8, i1 false), !tbaa.struct !26
  %36 = getelementptr inbounds nuw %struct.b2Polygon, ptr %0, i32 0, i32 0
  %37 = getelementptr inbounds [8 x %struct.b2Vec2], ptr %36, i64 0, i64 3
  %38 = getelementptr inbounds nuw %struct.b2Vec2, ptr %9, i32 0, i32 0
  %39 = load float, ptr %4, align 4, !tbaa !12
  %40 = fneg float %39
  store float %40, ptr %38, align 4, !tbaa !30
  %41 = getelementptr inbounds nuw %struct.b2Vec2, ptr %9, i32 0, i32 1
  %42 = load float, ptr %5, align 4, !tbaa !12
  store float %42, ptr %41, align 4, !tbaa !31
  call void @llvm.memcpy.p0.p0.i64(ptr align 4 %37, ptr align 4 %9, i64 8, i1 false), !tbaa.struct !26
  %43 = getelementptr inbounds nuw %struct.b2Polygon, ptr %0, i32 0, i32 1
  %44 = getelementptr inbounds [8 x %struct.b2Vec2], ptr %43, i64 0, i64 0
  %45 = getelementptr inbounds nuw %struct.b2Vec2, ptr %10, i32 0, i32 0
  store float 0.000000e+00, ptr %45, align 4, !tbaa !30
  %46 = getelementptr inbounds nuw %struct.b2Vec2, ptr %10, i32 0, i32 1
  store float -1.000000e+00, ptr %46, align 4, !tbaa !31
  call void @llvm.memcpy.p0.p0.i64(ptr align 4 %44, ptr align 4 %10, i64 8, i1 false), !tbaa.struct !26
  %47 = getelementptr inbounds nuw %struct.b2Polygon, ptr %0, i32 0, i32 1
  %48 = getelementptr inbounds [8 x %struct.b2Vec2], ptr %47, i64 0, i64 1
  %49 = getelementptr inbounds nuw %struct.b2Vec2, ptr %11, i32 0, i32 0
  store float 1.000000e+00, ptr %49, align 4, !tbaa !30
  %50 = getelementptr inbounds nuw %struct.b2Vec2, ptr %11, i32 0, i32 1
  store float 0.000000e+00, ptr %50, align 4, !tbaa !31
  call void @llvm.memcpy.p0.p0.i64(ptr align 4 %48, ptr align 4 %11, i64 8, i1 false), !tbaa.struct !26
  %51 = getelementptr inbounds nuw %struct.b2Polygon, ptr %0, i32 0, i32 1
  %52 = getelementptr inbounds [8 x %struct.b2Vec2], ptr %51, i64 0, i64 2
  %53 = getelementptr inbounds nuw %struct.b2Vec2, ptr %12, i32 0, i32 0
  store float 0.000000e+00, ptr %53, align 4, !tbaa !30
  %54 = getelementptr inbounds nuw %struct.b2Vec2, ptr %12, i32 0, i32 1
  store float 1.000000e+00, ptr %54, align 4, !tbaa !31
  call void @llvm.memcpy.p0.p0.i64(ptr align 4 %52, ptr align 4 %12, i64 8, i1 false), !tbaa.struct !26
  %55 = getelementptr inbounds nuw %struct.b2Polygon, ptr %0, i32 0, i32 1
  %56 = getelementptr inbounds [8 x %struct.b2Vec2], ptr %55, i64 0, i64 3
  %57 = getelementptr inbounds nuw %struct.b2Vec2, ptr %13, i32 0, i32 0
  store float -1.000000e+00, ptr %57, align 4, !tbaa !30
  %58 = getelementptr inbounds nuw %struct.b2Vec2, ptr %13, i32 0, i32 1
  store float 0.000000e+00, ptr %58, align 4, !tbaa !31
  call void @llvm.memcpy.p0.p0.i64(ptr align 4 %56, ptr align 4 %13, i64 8, i1 false), !tbaa.struct !26
  %59 = getelementptr inbounds nuw %struct.b2Polygon, ptr %0, i32 0, i32 3
  store float 0.000000e+00, ptr %59, align 4, !tbaa !24
  %60 = getelementptr inbounds nuw %struct.b2Polygon, ptr %0, i32 0, i32 2
  call void @llvm.memcpy.p0.p0.i64(ptr align 4 %60, ptr align 4 @b2Vec2_zero, i64 8, i1 false), !tbaa.struct !26
  ret void
}

; Function Attrs: nounwind uwtable
define void @b2MakeRoundedBox(ptr dead_on_unwind noalias writable sret(%struct.b2Polygon) align 4 %0, float noundef %1, float noundef %2, float noundef %3) #3 {
  %5 = alloca float, align 4
  %6 = alloca float, align 4
  %7 = alloca float, align 4
  store float %1, ptr %5, align 4, !tbaa !12
  store float %2, ptr %6, align 4, !tbaa !12
  store float %3, ptr %7, align 4, !tbaa !12
  %8 = load float, ptr %5, align 4, !tbaa !12
  %9 = load float, ptr %6, align 4, !tbaa !12
  call void @b2MakeBox(ptr dead_on_unwind writable sret(%struct.b2Polygon) align 4 %0, float noundef %8, float noundef %9)
  %10 = load float, ptr %7, align 4, !tbaa !12
  %11 = getelementptr inbounds nuw %struct.b2Polygon, ptr %0, i32 0, i32 3
  store float %10, ptr %11, align 4, !tbaa !24
  ret void
}